target datalayout = "e-m:e-p270:32:32-p271:32:32-p272:64:64-i64:64-i128:128-f80:128-n8:16:32:64-S128"
target triple = "x86_64-pc-linux-gnu"

%struct.ZSTDv07_customMem = type { ptr, ptr, ptr }
%struct.ZSTDv07_DCtx_s = type { [513 x i32], [257 x i32], [513 x i32], [4097 x i32], ptr, ptr, ptr, ptr, i64, [3 x i32], %struct.ZSTDv07_frameParams, i32, i32, i32, i32, %struct.XXH64_state_s, i64, i32, ptr, %struct.ZSTDv07_customMem, i64, [131080 x i8], [18 x i8] }
%struct.ZSTDv07_frameParams = type { i64, i32, i32, i32 }
%struct.XXH64_state_s = type { i64, [4 x i64], [4 x i64], i32, i32, i64 }
%struct.ZSTDv07_DDict_s = type { ptr, i64, ptr }

; Function Attrs: nounwind uwtable
define i64 @ZSTDv07_freeDCtx(ptr noundef %0) #0 {
  %2 = alloca i64, align 8
  %3 = alloca ptr, align 8
  store ptr %0, ptr %3, align 8, !tbaa !67
  %4 = load ptr, ptr %3, align 8, !tbaa !67
  %5 = icmp eq ptr %4, null
  br i1 %5, label %6, label %7

6:                                                ; preds = %1
  store i64 0, ptr %2, align 8
  br label %17

7:                                                ; preds = %1
  %8 = load ptr, ptr %3, align 8, !tbaa !67
  %9 = getelementptr inbounds nuw %struct.ZSTDv07_DCtx_s, ptr %8, i32 0, i32 19
  %10 = getelementptr inbounds nuw %struct.ZSTDv07_customMem, ptr %9, i32 0, i32 1
  %11 = load ptr, ptr %10, align 8, !tbaa !88
  %12 = load ptr, ptr %3, align 8, !tbaa !67
  %13 = getelementptr inbounds nuw %struct.ZSTDv07_DCtx_s, ptr %12, i32 0, i32 19
  %14 = getelementptr inbounds nuw %struct.ZSTDv07_customMem, ptr %13, i32 0, i32 2
  %15 = load ptr, ptr %14, align 8, !tbaa !89
  %16 = load ptr, ptr %3, align 8, !tbaa !67
  call void %11(ptr noundef %15, ptr noundef %16)
  store i64 0, ptr %2, align 8
  br label %17

17:                                               ; preds = %7, %6
  %18 = load i64, ptr %2, align 8
  ret i64 %18
}

; Function Attrs: nounwind uwtable
define i64 @ZSTDv07_freeDDict(ptr noundef %0) #0 {
  %2 = alloca ptr, align 8
  %3 = alloca ptr, align 8
  %4 = alloca ptr, align 8
  store ptr %0, ptr %2, align 8, !tbaa !103
  call void @llvm.lifetime.start.p0(i64 8, ptr %3) #11
  %5 = load ptr, ptr %2, align 8, !tbaa !103
  %6 = getelementptr inbounds nuw %struct.ZSTDv07_DDict_s, ptr %5, i32 0, i32 2
  %7 = load ptr, ptr %6, align 8, !tbaa !108
  %8 = getelementptr inbounds nuw %struct.ZSTDv07_DCtx_s, ptr %7, i32 0, i32 19
  %9 = getelementptr inbounds nuw %struct.ZSTDv07_customMem, ptr %8, i32 0, i32 1
  %10 = load ptr, ptr %9, align 8, !tbaa !88
  store ptr %10, ptr %3, align 8, !tbaa !12
  call void @llvm.lifetime.start.p0(i64 8, ptr %4) #11
  %11 = load ptr, ptr %2, align 8, !tbaa !103
  %12 = getelementptr inbounds nuw %struct.ZSTDv07_DDict_s, ptr %11, i32 0, i32 2
  %13 = load ptr, ptr %12, align 8, !tbaa !108
  %14 = getelementptr inbounds nuw %struct.ZSTDv07_DCtx_s, ptr %13, i32 0, i32 19
  %15 = getelementptr inbounds nuw %struct.ZSTDv07_customMem, ptr %14, i32 0, i32 2
  %16 = load ptr, ptr %15, align 8, !tbaa !89
  store ptr %16, ptr %4, align 8, !tbaa !12
  %17 = load ptr, ptr %2, align 8, !tbaa !103
  %18 = getelementptr inbounds nuw %struct.ZSTDv07_DDict_s, ptr %17, i32 0, i32 2
  %19 = load ptr, ptr %18, align 8, !tbaa !108
  %20 = call i64 @ZSTDv07_freeDCtx(ptr noundef %19)
  %21 = load ptr, ptr %3, align 8, !tbaa !12
  %22 = load ptr, ptr %4, align 8, !tbaa !12
  %23 = load ptr, ptr %2, align 8, !tbaa !103
  %24 = getelementptr inbounds nuw %struct.ZSTDv07_DDict_s, ptr %23, i32 0, i32 0
  %25 = load ptr, ptr %24, align 8, !tbaa !105
  call void %21(ptr noundef %22, ptr noundef %25)
  %26 = load ptr, ptr %3, align 8, !tbaa !12
  %27 = load ptr, ptr %4, align 8, !tbaa !12
  %28 = load ptr, ptr %2, align 8, !tbaa !103
  call void %26(ptr noundef %27, ptr noundef %28)
  call void @llvm.lifetime.end.p0(i64 8, ptr %4) #11
  call void @llvm.lifetime.end.p0(i64 8, ptr %3) #11
  ret i64 0
}