; Function Attrs: nounwind uwtable
define noundef i64 @ZSTDv07_freeDDict(ptr noundef %0) local_unnamed_addr #1 {
ZSTDv07_freeDCtx.exit:
  %1 = getelementptr inbounds nuw i8, ptr %0, i64 16
  %2 = load ptr, ptr %1, align 8, !tbaa !108
  %3 = getelementptr inbounds nuw i8, ptr %2, i64 21736
  %4 = load ptr, ptr %3, align 8, !tbaa !75
  %5 = getelementptr inbounds nuw i8, ptr %2, i64 21744
  %6 = load ptr, ptr %5, align 8, !tbaa !76
  tail call void %4(ptr noundef %6, ptr noundef nonnull %2) #26
  %7 = load ptr, ptr %0, align 8, !tbaa !104
  tail call void %4(ptr noundef %6, ptr noundef %7) #26
  tail call void %4(ptr noundef %6, ptr noundef nonnull %0) #26
  ret i64 0
}